target datalayout = "e-m:e-p270:32:32-p271:32:32-p272:64:64-i64:64-i128:128-f80:128-n8:16:32:64-S128"
target triple = "x86_64-pc-linux-gnu"

%struct.asn1_string_st = type { i32, i32, ptr, i64 }
%struct.x509_st = type { %struct.x509_cinf_st, %struct.X509_algor_st, %struct.asn1_string_st, %struct.x509_sig_info_st, %struct.CRYPTO_REF_COUNT, %struct.crypto_ex_data_st, i64, i64, i32, i32, i32, i32, ptr, ptr, ptr, ptr, ptr, ptr, ptr, ptr, [20 x i8], ptr, ptr, i32, ptr, ptr, ptr }
%struct.x509_cinf_st = type { ptr, %struct.asn1_string_st, %struct.X509_algor_st, ptr, %struct.X509_val_st, ptr, ptr, ptr, ptr, ptr, %struct.ASN1_ENCODING_st }
%struct.X509_val_st = type { ptr, ptr }
%struct.ASN1_ENCODING_st = type { ptr, i64, i32 }
%struct.X509_algor_st = type { ptr, ptr }
%struct.x509_sig_info_st = type { i32, i32, i32, i32 }
%struct.CRYPTO_REF_COUNT = type { i32 }
%struct.crypto_ex_data_st = type { ptr, ptr }

; Function Attrs: nounwind uwtable
define i32 @X509V3_EXT_add_nconf(ptr noundef %0, ptr noundef %1, ptr noundef %2, ptr noundef %3) #0 {
  %5 = alloca ptr, align 8
  %6 = alloca ptr, align 8
  %7 = alloca ptr, align 8
  %8 = alloca ptr, align 8
  %9 = alloca ptr, align 8
  store ptr %0, ptr %5, align 8, !tbaa !3
  store ptr %1, ptr %6, align 8, !tbaa !8
  store ptr %2, ptr %7, align 8, !tbaa !10
  store ptr %3, ptr %8, align 8, !tbaa !63
  call void @llvm.lifetime.start.p0(i64 8, ptr %9) #5
  store ptr null, ptr %9, align 8, !tbaa !51
  %10 = load ptr, ptr %8, align 8, !tbaa !63
  %11 = icmp ne ptr %10, null
  br i1 %11, label %12, label %16

12:                                               ; preds = %4
  %13 = load ptr, ptr %8, align 8, !tbaa !63
  %14 = getelementptr inbounds nuw %struct.x509_st, ptr %13, i32 0, i32 0
  %15 = getelementptr inbounds nuw %struct.x509_cinf_st, ptr %14, i32 0, i32 9
  store ptr %15, ptr %9, align 8, !tbaa !51
  br label %16

16:                                               ; preds = %12, %4
  %17 = load ptr, ptr %5, align 8, !tbaa !3
  %18 = load ptr, ptr %6, align 8, !tbaa !8
  %19 = load ptr, ptr %7, align 8, !tbaa !10
  %20 = load ptr, ptr %9, align 8, !tbaa !51
  %21 = call i32 @X509V3_EXT_add_nconf_sk(ptr noundef %17, ptr noundef %18, ptr noundef %19, ptr noundef %20)
  call void @llvm.lifetime.end.p0(i64 8, ptr %9) #5
  ret i32 %21
}

; Function Attrs: nounwind uwtable
define i32 @X509V3_EXT_add_conf(ptr noundef %0, ptr noundef %1, ptr noundef %2, ptr noundef %3) #0 {
  %5 = alloca i32, align 4
  %6 = alloca ptr, align 8
  %7 = alloca ptr, align 8
  %8 = alloca ptr, align 8
  %9 = alloca ptr, align 8
  %10 = alloca ptr, align 8
  %11 = alloca i32, align 4
  %12 = alloca i32, align 4
  store ptr %0, ptr %6, align 8, !tbaa !77
  store ptr %1, ptr %7, align 8, !tbaa !8
  store ptr %2, ptr %8, align 8, !tbaa !10
  store ptr %3, ptr %9, align 8, !tbaa !63
  call void @llvm.lifetime.start.p0(i64 8, ptr %10) #5
  call void @llvm.lifetime.start.p0(i64 4, ptr %11) #5
  %13 = call ptr @NCONF_new(ptr noundef null)
  store ptr %13, ptr %10, align 8, !tbaa !3
  %14 = icmp eq ptr %13, null
  br i1 %14, label %15, label %16

15:                                               ; preds = %4
  store i32 0, ptr %5, align 4
  store i32 1, ptr %12, align 4
  br label %27

16:                                               ; preds = %4
  %17 = load ptr, ptr %10, align 8, !tbaa !3
  %18 = load ptr, ptr %6, align 8, !tbaa !77
  call void @CONF_set_nconf(ptr noundef %17, ptr noundef %18)
  %19 = load ptr, ptr %10, align 8, !tbaa !3
  %20 = load ptr, ptr %7, align 8, !tbaa !8
  %21 = load ptr, ptr %8, align 8, !tbaa !10
  %22 = load ptr, ptr %9, align 8, !tbaa !63
  %23 = call i32 @X509V3_EXT_add_nconf(ptr noundef %19, ptr noundef %20, ptr noundef %21, ptr noundef %22)
  store i32 %23, ptr %11, align 4, !tbaa !12
  %24 = load ptr, ptr %10, align 8, !tbaa !3
  call void @CONF_set_nconf(ptr noundef %24, ptr noundef null)
  %25 = load ptr, ptr %10, align 8, !tbaa !3
  call void @NCONF_free(ptr noundef %25)
  %26 = load i32, ptr %11, align 4, !tbaa !12
  store i32 %26, ptr %5, align 4
  store i32 1, ptr %12, align 4
  br label %27

27:                                               ; preds = %16, %15
  call void @llvm.lifetime.end.p0(i64 4, ptr %11) #5
  call void @llvm.lifetime.end.p0(i64 8, ptr %10) #5
  %28 = load i32, ptr %5, align 4
  ret i32 %28
}